target datalayout = "e-m:e-p270:32:32-p271:32:32-p272:64:64-i64:64-i128:128-f80:128-n8:16:32:64-S128"
target triple = "x86_64-pc-linux-gnu"

; Function Attrs: nounwind uwtable
define void @sanitiseName(ptr noundef %0) #0 {
  %2 = alloca ptr, align 8
  %3 = alloca i8, align 1
  store ptr %0, ptr %2, align 8
  br label %4

4:                                                ; preds = %42, %1
  %5 = load ptr, ptr %2, align 8
  %6 = load i8, ptr %5, align 1
  store i8 %6, ptr %3, align 1
  %7 = icmp ne i8 %6, 0
  br i1 %7, label %8, label %45

8:                                                ; preds = %4
  %9 = load i8, ptr %3, align 1
  %10 = sext i8 %9 to i32
  %11 = icmp ne i32 %10, 46
  br i1 %11, label %12, label %42

12:                                               ; preds = %8
  %13 = load i8, ptr %3, align 1
  %14 = sext i8 %13 to i32
  %15 = icmp ne i32 %14, 95
  br i1 %15, label %16, label %42

16:                                               ; preds = %12
  %17 = load i8, ptr %3, align 1
  %18 = sext i8 %17 to i32
  %19 = icmp sgt i32 %18, 122
  br i1 %19, label %40, label %20

20:                                               ; preds = %16
  %21 = load i8, ptr %3, align 1
  %22 = sext i8 %21 to i32
  %23 = icmp slt i32 %22, 48
  br i1 %23, label %40, label %24

24:                                               ; preds = %20
  %25 = load i8, ptr %3, align 1
  %26 = sext i8 %25 to i32
  %27 = icmp sgt i32 %26, 57
  br i1 %27, label %28, label %32

28:                                               ; preds = %24
  %29 = load i8, ptr %3, align 1
  %30 = sext i8 %29 to i32
  %31 = icmp slt i32 %30, 65
  br i1 %31, label %40, label %32

32:                                               ; preds = %28, %24
  %33 = load i8, ptr %3, align 1
  %34 = sext i8 %33 to i32
  %35 = icmp sgt i32 %34, 90
  br i1 %35, label %36, label %42

36:                                               ; preds = %32
  %37 = load i8, ptr %3, align 1
  %38 = sext i8 %37 to i32
  %39 = icmp slt i32 %38, 97
  br i1 %39, label %40, label %42

40:                                               ; preds = %36, %28, %20, %16
  %41 = load ptr, ptr %2, align 8
  store i8 95, ptr %41, align 1
  br label %42

42:                                               ; preds = %40, %36, %32, %12, %8
  %43 = load ptr, ptr %2, align 8
  %44 = getelementptr inbounds i8, ptr %43, i32 1
  store ptr %44, ptr %2, align 8
  br label %4

45:                                               ; preds = %4
  ret void
}