; Function Attrs: nofree norecurse nosync nounwind memory(readwrite, inaccessiblemem: none) uwtable
define void @sanitiseName(ptr nocapture noundef %0) local_unnamed_addr #6 {
  br label %2

2:                                                ; preds = %7, %1
  %.0 = phi ptr [ %0, %1 ], [ %8, %7 ]
  %3 = load i8, ptr %.0, align 1
  switch i8 %3, label %4 [
    i8 0, label %9
    i8 95, label %7
    i8 46, label %7
  ]

4:                                                ; preds = %2
  %5 = add i8 %3, -123
  %or.cond5 = icmp ult i8 %5, -75
  br i1 %or.cond5, label %6, label %switch.early.test

switch.early.test:                                ; preds = %4
  switch i8 %3, label %7 [
    i8 96, label %6
    i8 95, label %6
    i8 94, label %6
    i8 93, label %6
    i8 92, label %6
    i8 91, label %6
    i8 64, label %6
    i8 63, label %6
    i8 62, label %6
    i8 61, label %6
    i8 60, label %6
    i8 59, label %6
    i8 58, label %6
  ]

6:                                                ; preds = %switch.early.test, %switch.early.test, %switch.early.test, %switch.early.test, %switch.early.test, %switch.early.test, %switch.early.test, %switch.early.test, %switch.early.test, %switch.early.test, %switch.early.test, %switch.early.test, %switch.early.test, %4
  store i8 95, ptr %.0, align 1
  br label %7

7:                                                ; preds = %switch.early.test, %2, %2, %6
  %8 = getelementptr inbounds i8, ptr %.0, i64 1
  br label %2

9:                                                ; preds = %2
  ret void
}